target datalayout = "e-m:e-p270:32:32-p271:32:32-p272:64:64-i64:64-i128:128-f80:128-n8:16:32:64-S128"
target triple = "x86_64-pc-linux-gnu"

%struct.strvec = type { ptr, i64, i64 }
%struct.am_state = type { ptr, i32, i32, ptr, ptr, ptr, ptr, i64, %struct.object_id, i32, i32, i32, i32, i32, i32, i32, i32, i32, i32, i32, i32, %struct.strvec, ptr, i32, i32, i32, ptr, i32 }
%struct.object_id = type { [32 x i8], i32 }

@.str.124 = private unnamed_addr constant [14 x i8] c"author-script\00", align 1
@.str.125 = private unnamed_addr constant [13 x i8] c"final-commit\00", align 1
@.str.200 = private unnamed_addr constant [34 x i8] c"cannot resume: %s does not exist.\00", align 1

; Function Attrs: nounwind uwtable
define internal void @validate_resume_state(ptr noundef %0) #0 {
  %2 = alloca ptr, align 8
  store ptr %0, ptr %2, align 8, !tbaa !47
  %3 = load ptr, ptr %2, align 8, !tbaa !47
  %4 = getelementptr inbounds nuw %struct.am_state, ptr %3, i32 0, i32 6
  %5 = load ptr, ptr %4, align 8, !tbaa !85
  %6 = icmp ne ptr %5, null
  br i1 %6, label %11, label %7

7:                                                ; preds = %1
  %8 = call ptr @_(ptr noundef @.str.200)
  %9 = load ptr, ptr %2, align 8, !tbaa !47
  %10 = call ptr @am_path(ptr noundef %9, ptr noundef @.str.125)
  call void (ptr, ...) @die(ptr noundef %8, ptr noundef %10) #15
  unreachable

11:                                               ; preds = %1
  %12 = load ptr, ptr %2, align 8, !tbaa !47
  %13 = getelementptr inbounds nuw %struct.am_state, ptr %12, i32 0, i32 3
  %14 = load ptr, ptr %13, align 8, !tbaa !87
  %15 = icmp ne ptr %14, null
  br i1 %15, label %16, label %26

16:                                               ; preds = %11
  %17 = load ptr, ptr %2, align 8, !tbaa !47
  %18 = getelementptr inbounds nuw %struct.am_state, ptr %17, i32 0, i32 4
  %19 = load ptr, ptr %18, align 8, !tbaa !88
  %20 = icmp ne ptr %19, null
  br i1 %20, label %21, label %26

21:                                               ; preds = %16
  %22 = load ptr, ptr %2, align 8, !tbaa !47
  %23 = getelementptr inbounds nuw %struct.am_state, ptr %22, i32 0, i32 5
  %24 = load ptr, ptr %23, align 8, !tbaa !89
  %25 = icmp ne ptr %24, null
  br i1 %25, label %30, label %26

26:                                               ; preds = %21, %16, %11
  %27 = call ptr @_(ptr noundef @.str.200)
  %28 = load ptr, ptr %2, align 8, !tbaa !47
  %29 = call ptr @am_path(ptr noundef %28, ptr noundef @.str.124)
  call void (ptr, ...) @die(ptr noundef %27, ptr noundef %29) #15
  unreachable

30:                                               ; preds = %21
  ret void
}