; Function Attrs: nounwind uwtable
define internal fastcc void @validate_resume_state(ptr noundef nonnull readonly captures(none) %0) unnamed_addr #0 {
  %2 = getelementptr inbounds nuw i8, ptr %0, i64 40
  %3 = load ptr, ptr %2, align 8, !tbaa !39
  %.not = icmp eq ptr %3, null
  br i1 %.not, label %4, label %7

4:                                                ; preds = %1
  %5 = tail call fastcc ptr @_(ptr noundef nonnull @.str.200)
  %.val9 = load ptr, ptr %0, align 8, !tbaa !23
  %6 = tail call fastcc ptr @am_path(ptr %.val9, ptr noundef nonnull @.str.125)
  tail call void (ptr, ...) @die(ptr noundef %5, ptr noundef %6) #22
  unreachable

7:                                                ; preds = %1
  %8 = getelementptr inbounds nuw i8, ptr %0, i64 16
  %9 = load ptr, ptr %8, align 8, !tbaa !41
  %.not6 = icmp eq ptr %9, null
  br i1 %.not6, label %16, label %10

10:                                               ; preds = %7
  %11 = getelementptr inbounds nuw i8, ptr %0, i64 24
  %12 = load ptr, ptr %11, align 8, !tbaa !42
  %.not7 = icmp eq ptr %12, null
  br i1 %.not7, label %16, label %13

13:                                               ; preds = %10
  %14 = getelementptr inbounds nuw i8, ptr %0, i64 32
  %15 = load ptr, ptr %14, align 8, !tbaa !43
  %.not8 = icmp eq ptr %15, null
  br i1 %.not8, label %16, label %19

16:                                               ; preds = %13, %10, %7
  %17 = tail call fastcc ptr @_(ptr noundef nonnull @.str.200)
  %.val = load ptr, ptr %0, align 8, !tbaa !23
  %18 = tail call fastcc ptr @am_path(ptr %.val, ptr noundef nonnull @.str.124)
  tail call void (ptr, ...) @die(ptr noundef %17, ptr noundef %18) #22
  unreachable

19:                                               ; preds = %13
  ret void
}